; ModuleID = 'source-C-CXX/27/230.c'
source_filename = "source-C-CXX/27/230.c"
target datalayout = "e-m:e-p270:32:32-p271:32:32-p272:64:64-i64:64-f80:128-n8:16:32:64-S128"
target triple = "x86_64-pc-linux-gnu"

@.str = private unnamed_addr constant [4 x i8] c"%d,\00", align 1
@.str.1 = private unnamed_addr constant [4 x i8] c"%d\0A\00", align 1

; Function Attrs: nounwind sspstrong uwtable
define dso_local void @main() local_unnamed_addr #0 {
  %1 = alloca [1000 x i8], align 16
  %2 = alloca [300 x i32], align 16
  %3 = getelementptr inbounds [1000 x i8], [1000 x i8]* %1, i64 0, i64 0
  call void @llvm.lifetime.start.p0i8(i64 1000, i8* nonnull %3) #5
  %4 = bitcast [300 x i32]* %2 to i8*
  call void @llvm.lifetime.start.p0i8(i64 1200, i8* nonnull %4) #5
  call void @llvm.memset.p0i8.i64(i8* noundef nonnull align 16 dereferenceable(1200) %4, i8 0, i64 1200, i1 false)
  %5 = call i32 (i8*, ...) bitcast (i32 (...)* @gets to i32 (i8*, ...)*)(i8* nonnull %3) #5
  br label %6

6:                                                ; preds = %6, %0
  %7 = phi i8* [ %3, %0 ], [ %10, %6 ]
  %8 = load i8, i8* %7, align 1, !tbaa !5
  %9 = icmp eq i8 %8, 32
  %10 = getelementptr inbounds i8, i8* %7, i64 1
  br i1 %9, label %6, label %11, !llvm.loop !8

11:                                               ; preds = %6, %31
  %12 = phi i8 [ %35, %31 ], [ %8, %6 ]
  %13 = phi i8* [ %34, %31 ], [ %7, %6 ]
  %14 = phi i32 [ %32, %31 ], [ 0, %6 ]
  %15 = phi i32 [ %33, %31 ], [ 0, %6 ]
  switch i8 %12, label %26 [
    i8 0, label %16
    i8 32, label %20
  ]

16:                                               ; preds = %11
  %17 = icmp sgt i32 %14, 0
  br i1 %17, label %18, label %43

18:                                               ; preds = %16
  %19 = zext i32 %14 to i64
  br label %36

20:                                               ; preds = %11
  %21 = add nsw i32 %15, 1
  %22 = icmp eq i32 %15, 0
  %23 = zext i1 %22 to i32
  %24 = add nsw i32 %14, %23
  %25 = select i1 %22, i32 2, i32 %21
  br label %31

26:                                               ; preds = %11
  %27 = sext i32 %14 to i64
  %28 = getelementptr inbounds [300 x i32], [300 x i32]* %2, i64 0, i64 %27
  %29 = load i32, i32* %28, align 4, !tbaa !10
  %30 = add nsw i32 %29, 1
  store i32 %30, i32* %28, align 4, !tbaa !10
  br label %31

31:                                               ; preds = %20, %26
  %32 = phi i32 [ %14, %26 ], [ %24, %20 ]
  %33 = phi i32 [ 0, %26 ], [ %25, %20 ]
  %34 = getelementptr inbounds i8, i8* %13, i64 1
  %35 = load i8, i8* %34, align 1, !tbaa !5
  br label %11, !llvm.loop !12

36:                                               ; preds = %18, %36
  %37 = phi i64 [ 0, %18 ], [ %41, %36 ]
  %38 = getelementptr inbounds [300 x i32], [300 x i32]* %2, i64 0, i64 %37
  %39 = load i32, i32* %38, align 4, !tbaa !10
  %40 = call i32 (i8*, ...) @printf(i8* nonnull dereferenceable(1) getelementptr inbounds ([4 x i8], [4 x i8]* @.str, i64 0, i64 0), i32 %39)
  %41 = add nuw nsw i64 %37, 1
  %42 = icmp eq i64 %41, %19
  br i1 %42, label %43, label %36, !llvm.loop !13

43:                                               ; preds = %36, %16
  %44 = sext i32 %14 to i64
  %45 = getelementptr inbounds [300 x i32], [300 x i32]* %2, i64 0, i64 %44
  %46 = load i32, i32* %45, align 4, !tbaa !10
  %47 = call i32 (i8*, ...) @printf(i8* nonnull dereferenceable(1) getelementptr inbounds ([4 x i8], [4 x i8]* @.str.1, i64 0, i64 0), i32 %46)
  call void @llvm.lifetime.end.p0i8(i64 1200, i8* nonnull %4) #5
  call void @llvm.lifetime.end.p0i8(i64 1000, i8* nonnull %3) #5
  ret void
}

; Function Attrs: argmemonly mustprogress nofree nosync nounwind willreturn
declare void @llvm.lifetime.start.p0i8(i64 immarg, i8* nocapture) #1

; Function Attrs: argmemonly mustprogress nofree nounwind willreturn writeonly
declare void @llvm.memset.p0i8.i64(i8* nocapture writeonly, i8, i64, i1 immarg) #2

declare i32 @gets(...) local_unnamed_addr #3

; Function Attrs: nofree nounwind
declare noundef i32 @printf(i8* nocapture noundef readonly, ...) local_unnamed_addr #4

; Function Attrs: argmemonly mustprogress nofree nosync nounwind willreturn
declare void @llvm.lifetime.end.p0i8(i64 immarg, i8* nocapture) #1


!llvm.module.flags = !{!0, !1, !2, !3}
!llvm.ident = !{!4}

!0 = !{i32 1, !"wchar_size", i32 4}
!1 = !{i32 7, !"PIC Level", i32 2}
!2 = !{i32 7, !"PIE Level", i32 2}
!3 = !{i32 7, !"uwtable", i32 1}
!4 = !{!"clang version 13.0.0"}
!5 = !{!6, !6, i64 0}
!6 = !{!"omnipotent char", !7, i64 0}
!7 = !{!"Simple C/C++ TBAA"}
!8 = distinct !{!8, !9}
!9 = !{!"llvm.loop.mustprogress"}
!10 = !{!11, !11, i64 0}
!11 = !{!"int", !6, i64 0}
!12 = distinct !{!12, !9}
!13 = distinct !{!13, !9}
